; Function Attrs: mustprogress nounwind uwtable
define hidden void @_ZN9Assembler3leaE8Register7Address(ptr nocapture noundef nonnull readonly align 8 dereferenceable(40) %0, i32 %1, ptr noundef %2) local_unnamed_addr #0 align 2 {
  %4 = alloca %class.Address, align 8
  call void @llvm.memcpy.p0.p0.i64(ptr noundef nonnull align 8 dereferenceable(21) %4, ptr noundef nonnull align 8 dereferenceable(21) %2, i64 21, i1 false)
  %5 = getelementptr inbounds i8, ptr %4, i64 24
  %6 = getelementptr inbounds i8, ptr %2, i64 24
  %7 = load ptr, ptr %6, align 8
  %8 = getelementptr inbounds i8, ptr %7, i64 16
  %9 = load ptr, ptr %8, align 8
  call void %9(ptr noundef nonnull align 8 dereferenceable(20) %6, ptr noundef nonnull align 8 dereferenceable(40) %5) #18
  call void @_ZN9Assembler4leaqE8Register7Address(ptr noundef nonnull align 8 dereferenceable(40) %0, i32 %1, ptr noundef nonnull %4)
  ret void
}